target datalayout = "e-m:e-p270:32:32-p271:32:32-p272:64:64-i64:64-i128:128-f80:128-n8:16:32:64-S128"
target triple = "x86_64-pc-linux-gnu"

%struct.htmlparserstate_s = type { ptr, ptr, %struct.textspans_t, %struct.htextspans_t, ptr, %struct.sfont_t, ptr }
%struct.textspans_t = type { ptr, i64, i64, i64 }
%struct.htextspans_t = type { ptr, i64, i64, i64 }
%struct.sfont_t = type { ptr, i64, i64, i64 }
%struct.boxf = type { %struct.pointf_s, %struct.pointf_s }
%struct.pointf_s = type { double, double }
%struct.htextspan_t = type { ptr, i64, i8, double, double }
%struct.htmltxt_t = type { ptr, i64, i8, %struct.boxf }
%struct.textspan_t = type { ptr, ptr, ptr, ptr, double, double, %struct.pointf_s, i8 }

@stderr = external global ptr, align 8
@.str.8 = private unnamed_addr constant [58 x i8] c"integer overflow when trying to allocate %zu * %zu bytes\0A\00", align 1
@.str.9 = private unnamed_addr constant [49 x i8] c"out of memory when trying to allocate %zu bytes\0A\00", align 1

; Function Attrs: inlinehint nounwind uwtable
define internal void @free_hi(ptr noundef byval(%struct.htextspan_t) align 8 %0) #6 {
  %2 = alloca i64, align 8
  call void @llvm.lifetime.start.p0(i64 8, ptr %2) #13
  store i64 0, ptr %2, align 8, !tbaa !12
  br label %3

3:                                                ; preds = %16, %1
  %4 = load i64, ptr %2, align 8, !tbaa !12
  %5 = getelementptr inbounds nuw %struct.htextspan_t, ptr %0, i32 0, i32 1
  %6 = load i64, ptr %5, align 8, !tbaa !72
  %7 = icmp ult i64 %4, %6
  br i1 %7, label %9, label %8

8:                                                ; preds = %3
  call void @llvm.lifetime.end.p0(i64 8, ptr %2) #13
  br label %19

9:                                                ; preds = %3
  %10 = getelementptr inbounds nuw %struct.htextspan_t, ptr %0, i32 0, i32 0
  %11 = load ptr, ptr %10, align 8, !tbaa !73
  %12 = load i64, ptr %2, align 8, !tbaa !12
  %13 = getelementptr inbounds nuw %struct.textspan_t, ptr %11, i64 %12
  %14 = getelementptr inbounds nuw %struct.textspan_t, ptr %13, i32 0, i32 0
  %15 = load ptr, ptr %14, align 8, !tbaa !67
  call void @free(ptr noundef %15) #13
  br label %16

16:                                               ; preds = %9
  %17 = load i64, ptr %2, align 8, !tbaa !12
  %18 = add i64 %17, 1
  store i64 %18, ptr %2, align 8, !tbaa !12
  br label %3, !llvm.loop !139

19:                                               ; preds = %8
  %20 = getelementptr inbounds nuw %struct.htextspan_t, ptr %0, i32 0, i32 0
  %21 = load ptr, ptr %20, align 8, !tbaa !73
  call void @free(ptr noundef %21) #13
  ret void
}

; Function Attrs: inlinehint nounwind uwtable
define internal void @htextspans_get(ptr dead_on_unwind noalias writable sret(%struct.htextspan_t) align 8 %0, ptr noundef %1, i64 noundef %2) #6 {
  %4 = alloca ptr, align 8
  %5 = alloca i64, align 8
  store ptr %1, ptr %4, align 8, !tbaa !36
  store i64 %2, ptr %5, align 8, !tbaa !12
  %6 = load ptr, ptr %4, align 8, !tbaa !36
  %7 = getelementptr inbounds nuw %struct.htextspans_t, ptr %6, i32 0, i32 0
  %8 = load ptr, ptr %7, align 8, !tbaa !131
  %9 = load ptr, ptr %4, align 8, !tbaa !36
  %10 = getelementptr inbounds nuw %struct.htextspans_t, ptr %9, i32 0, i32 1
  %11 = load i64, ptr %10, align 8, !tbaa !134
  %12 = load i64, ptr %5, align 8, !tbaa !12
  %13 = add i64 %11, %12
  %14 = load ptr, ptr %4, align 8, !tbaa !36
  %15 = getelementptr inbounds nuw %struct.htextspans_t, ptr %14, i32 0, i32 3
  %16 = load i64, ptr %15, align 8, !tbaa !135
  %17 = urem i64 %13, %16
  %18 = getelementptr inbounds nuw %struct.htextspan_t, ptr %8, i64 %17
  call void @llvm.memcpy.p0.p0.i64(ptr align 8 %0, ptr align 8 %18, i64 40, i1 false), !tbaa.struct !64
  ret void
}

; Function Attrs: inlinehint nounwind uwtable
define internal i64 @textspans_size(ptr noundef %0) #6 {
  %2 = alloca ptr, align 8
  store ptr %0, ptr %2, align 8, !tbaa !36
  %3 = load ptr, ptr %2, align 8, !tbaa !36
  %4 = getelementptr inbounds nuw %struct.textspans_t, ptr %3, i32 0, i32 2
  %5 = load i64, ptr %4, align 8, !tbaa !136
  ret i64 %5
}

; Function Attrs: inlinehint nounwind uwtable
define internal void @htextspans_clear(ptr noundef %0) #6 {
  %2 = alloca ptr, align 8
  %3 = alloca i64, align 8
  %4 = alloca %struct.htextspan_t, align 8
  store ptr %0, ptr %2, align 8, !tbaa !36
  call void @llvm.lifetime.start.p0(i64 8, ptr %3) #13
  store i64 0, ptr %3, align 8, !tbaa !12
  br label %5

5:                                                ; preds = %18, %1
  %6 = load i64, ptr %3, align 8, !tbaa !12
  %7 = load ptr, ptr %2, align 8, !tbaa !36
  %8 = getelementptr inbounds nuw %struct.htextspans_t, ptr %7, i32 0, i32 2
  %9 = load i64, ptr %8, align 8, !tbaa !136
  %10 = icmp ult i64 %6, %9
  br i1 %10, label %12, label %11

11:                                               ; preds = %5
  call void @llvm.lifetime.end.p0(i64 8, ptr %3) #13
  br label %21

12:                                               ; preds = %5
  %13 = load ptr, ptr %2, align 8, !tbaa !36
  %14 = load i64, ptr %3, align 8, !tbaa !12
  call void @htextspans_get(ptr dead_on_unwind writable sret(%struct.htextspan_t) align 8 %4, ptr noundef %13, i64 noundef %14)
  call void @free_hi(ptr noundef byval(%struct.htextspan_t) align 8 %4)
  br label %15

15:                                               ; preds = %12
  br label %16

16:                                               ; preds = %15
  br label %17

17:                                               ; preds = %16
  br label %18

18:                                               ; preds = %17
  %19 = load i64, ptr %3, align 8, !tbaa !12
  %20 = add i64 %19, 1
  store i64 %20, ptr %3, align 8, !tbaa !12
  br label %5, !llvm.loop !138

21:                                               ; preds = %11
  %22 = load ptr, ptr %2, align 8, !tbaa !36
  %23 = getelementptr inbounds nuw %struct.htextspans_t, ptr %22, i32 0, i32 2
  store i64 0, ptr %23, align 8, !tbaa !136
  %24 = load ptr, ptr %2, align 8, !tbaa !36
  %25 = getelementptr inbounds nuw %struct.htextspans_t, ptr %24, i32 0, i32 1
  store i64 0, ptr %25, align 8, !tbaa !134
  ret void
}

; Function Attrs: inlinehint nounwind uwtable
define internal ptr @htextspans_at(ptr noundef %0, i64 noundef %1) #6 {
  %3 = alloca ptr, align 8
  %4 = alloca i64, align 8
  store ptr %0, ptr %3, align 8, !tbaa !36
  store i64 %1, ptr %4, align 8, !tbaa !12
  %5 = load ptr, ptr %3, align 8, !tbaa !36
  %6 = getelementptr inbounds nuw %struct.htextspans_t, ptr %5, i32 0, i32 0
  %7 = load ptr, ptr %6, align 8, !tbaa !131
  %8 = load ptr, ptr %3, align 8, !tbaa !36
  %9 = getelementptr inbounds nuw %struct.htextspans_t, ptr %8, i32 0, i32 1
  %10 = load i64, ptr %9, align 8, !tbaa !134
  %11 = load i64, ptr %4, align 8, !tbaa !12
  %12 = add i64 %10, %11
  %13 = load ptr, ptr %3, align 8, !tbaa !36
  %14 = getelementptr inbounds nuw %struct.htextspans_t, ptr %13, i32 0, i32 3
  %15 = load i64, ptr %14, align 8, !tbaa !135
  %16 = urem i64 %12, %15
  %17 = getelementptr inbounds nuw %struct.htextspan_t, ptr %7, i64 %16
  ret ptr %17
}

; Function Attrs: inlinehint nounwind uwtable
define internal ptr @gv_calloc(i64 noundef %0, i64 noundef %1) #6 {
  %3 = alloca i64, align 8
  %4 = alloca i64, align 8
  %5 = alloca ptr, align 8
  store i64 %0, ptr %3, align 8, !tbaa !12
  store i64 %1, ptr %4, align 8, !tbaa !12
  %6 = load i64, ptr %3, align 8, !tbaa !12
  %7 = icmp ugt i64 %6, 0
  br i1 %7, label %8, label %18

8:                                                ; preds = %2
  %9 = load i64, ptr %3, align 8, !tbaa !12
  %10 = udiv i64 -1, %9
  %11 = load i64, ptr %4, align 8, !tbaa !12
  %12 = icmp ult i64 %10, %11
  br i1 %12, label %13, label %18

13:                                               ; preds = %8
  %14 = load ptr, ptr @stderr, align 8, !tbaa !132
  %15 = load i64, ptr %3, align 8, !tbaa !12
  %16 = load i64, ptr %4, align 8, !tbaa !12
  %17 = call i32 (ptr, ptr, ...) @fprintf(ptr noundef %14, ptr noundef @.str.8, i64 noundef %15, i64 noundef %16) #13
  call void @graphviz_exit(i32 noundef 1) #15
  unreachable

18:                                               ; preds = %8, %2
  call void @llvm.lifetime.start.p0(i64 8, ptr %5) #13
  %19 = load i64, ptr %3, align 8, !tbaa !12
  %20 = load i64, ptr %4, align 8, !tbaa !12
  %21 = call noalias ptr @calloc(i64 noundef %19, i64 noundef %20) #16
  store ptr %21, ptr %5, align 8, !tbaa !36
  %22 = load i64, ptr %3, align 8, !tbaa !12
  %23 = icmp ugt i64 %22, 0
  br i1 %23, label %24, label %36

24:                                               ; preds = %18
  %25 = load i64, ptr %4, align 8, !tbaa !12
  %26 = icmp ugt i64 %25, 0
  br i1 %26, label %27, label %36

27:                                               ; preds = %24
  %28 = load ptr, ptr %5, align 8, !tbaa !36
  %29 = icmp eq ptr %28, null
  br i1 %29, label %30, label %36

30:                                               ; preds = %27
  %31 = load ptr, ptr @stderr, align 8, !tbaa !132
  %32 = load i64, ptr %3, align 8, !tbaa !12
  %33 = load i64, ptr %4, align 8, !tbaa !12
  %34 = mul i64 %32, %33
  %35 = call i32 (ptr, ptr, ...) @fprintf(ptr noundef %31, ptr noundef @.str.9, i64 noundef %34) #13
  call void @graphviz_exit(i32 noundef 1) #15
  unreachable

36:                                               ; preds = %27, %24, %18
  %37 = load ptr, ptr %5, align 8, !tbaa !36
  call void @llvm.lifetime.end.p0(i64 8, ptr %5) #13
  ret ptr %37
}

; Function Attrs: inlinehint nounwind uwtable
define internal i64 @htextspans_size(ptr noundef %0) #6 {
  %2 = alloca ptr, align 8
  store ptr %0, ptr %2, align 8, !tbaa !36
  %3 = load ptr, ptr %2, align 8, !tbaa !36
  %4 = getelementptr inbounds nuw %struct.htextspans_t, ptr %3, i32 0, i32 2
  %5 = load i64, ptr %4, align 8, !tbaa !136
  ret i64 %5
}

; Function Attrs: inlinehint nounwind uwtable
define internal zeroext i1 @textspans_is_empty(ptr noundef %0) #6 {
  %2 = alloca ptr, align 8
  store ptr %0, ptr %2, align 8, !tbaa !36
  %3 = load ptr, ptr %2, align 8, !tbaa !36
  %4 = call i64 @textspans_size(ptr noundef %3)
  %5 = icmp eq i64 %4, 0
  ret i1 %5
}

; Function Attrs: inlinehint nounwind uwtable
define internal ptr @gv_alloc(i64 noundef %0) #6 {
  %2 = alloca i64, align 8
  store i64 %0, ptr %2, align 8, !tbaa !12
  %3 = load i64, ptr %2, align 8, !tbaa !12
  %4 = call ptr @gv_calloc(i64 noundef 1, i64 noundef %3)
  ret ptr %4
}

; Function Attrs: nounwind uwtable
define internal ptr @mkText(ptr noundef %0) #0 {
  %2 = alloca ptr, align 8
  %3 = alloca ptr, align 8
  %4 = alloca ptr, align 8
  %5 = alloca i64, align 8
  %6 = alloca i64, align 8
  %7 = alloca ptr, align 8
  %8 = alloca %struct.htextspan_t, align 8
  store ptr %0, ptr %2, align 8, !tbaa !55
  call void @llvm.lifetime.start.p0(i64 8, ptr %3) #13
  %9 = load ptr, ptr %2, align 8, !tbaa !55
  %10 = getelementptr inbounds nuw %struct.htmlparserstate_s, ptr %9, i32 0, i32 3
  store ptr %10, ptr %3, align 8, !tbaa !36
  call void @llvm.lifetime.start.p0(i64 8, ptr %4) #13
  %11 = call ptr @gv_alloc(i64 noundef 56)
  store ptr %11, ptr %4, align 8, !tbaa !36
  %12 = load ptr, ptr %2, align 8, !tbaa !55
  %13 = getelementptr inbounds nuw %struct.htmlparserstate_s, ptr %12, i32 0, i32 2
  %14 = call zeroext i1 @textspans_is_empty(ptr noundef %13)
  br i1 %14, label %17, label %15

15:                                               ; preds = %1
  %16 = load ptr, ptr %2, align 8, !tbaa !55
  call void @appendFLineList(ptr noundef %16, i32 noundef 0)
  br label %17

17:                                               ; preds = %15, %1
  call void @llvm.lifetime.start.p0(i64 8, ptr %5) #13
  %18 = load ptr, ptr %3, align 8, !tbaa !36
  %19 = call i64 @htextspans_size(ptr noundef %18)
  store i64 %19, ptr %5, align 8, !tbaa !12
  %20 = load i64, ptr %5, align 8, !tbaa !12
  %21 = load ptr, ptr %4, align 8, !tbaa !36
  %22 = getelementptr inbounds nuw %struct.htmltxt_t, ptr %21, i32 0, i32 1
  store i64 %20, ptr %22, align 8, !tbaa !61
  %23 = load i64, ptr %5, align 8, !tbaa !12
  %24 = call ptr @gv_calloc(i64 noundef %23, i64 noundef 40)
  %25 = load ptr, ptr %4, align 8, !tbaa !36
  %26 = getelementptr inbounds nuw %struct.htmltxt_t, ptr %25, i32 0, i32 0
  store ptr %24, ptr %26, align 8, !tbaa !63
  call void @llvm.lifetime.start.p0(i64 8, ptr %6) #13
  store i64 0, ptr %6, align 8, !tbaa !12
  br label %27

27:                                               ; preds = %44, %17
  %28 = load i64, ptr %6, align 8, !tbaa !12
  %29 = load ptr, ptr %3, align 8, !tbaa !36
  %30 = call i64 @htextspans_size(ptr noundef %29)
  %31 = icmp ult i64 %28, %30
  br i1 %31, label %33, label %32

32:                                               ; preds = %27
  call void @llvm.lifetime.end.p0(i64 8, ptr %6) #13
  br label %47

33:                                               ; preds = %27
  call void @llvm.lifetime.start.p0(i64 8, ptr %7) #13
  %34 = load ptr, ptr %3, align 8, !tbaa !36
  %35 = load i64, ptr %6, align 8, !tbaa !12
  %36 = call ptr @htextspans_at(ptr noundef %34, i64 noundef %35)
  store ptr %36, ptr %7, align 8, !tbaa !36
  %37 = load ptr, ptr %4, align 8, !tbaa !36
  %38 = getelementptr inbounds nuw %struct.htmltxt_t, ptr %37, i32 0, i32 0
  %39 = load ptr, ptr %38, align 8, !tbaa !63
  %40 = load i64, ptr %6, align 8, !tbaa !12
  %41 = getelementptr inbounds nuw %struct.htextspan_t, ptr %39, i64 %40
  %42 = load ptr, ptr %7, align 8, !tbaa !36
  call void @llvm.memcpy.p0.p0.i64(ptr align 8 %41, ptr align 8 %42, i64 40, i1 false), !tbaa.struct !64
  %43 = load ptr, ptr %7, align 8, !tbaa !36
  call void @llvm.memset.p0.i64(ptr align 8 %8, i8 0, i64 40, i1 false)
  call void @llvm.memcpy.p0.p0.i64(ptr align 8 %43, ptr align 8 %8, i64 40, i1 false), !tbaa.struct !64
  call void @llvm.lifetime.end.p0(i64 8, ptr %7) #13
  br label %44

44:                                               ; preds = %33
  %45 = load i64, ptr %6, align 8, !tbaa !12
  %46 = add i64 %45, 1
  store i64 %46, ptr %6, align 8, !tbaa !12
  br label %27, !llvm.loop !66

47:                                               ; preds = %32
  %48 = load ptr, ptr %3, align 8, !tbaa !36
  call void @htextspans_clear(ptr noundef %48)
  %49 = load ptr, ptr %4, align 8, !tbaa !36
  call void @llvm.lifetime.end.p0(i64 8, ptr %5) #13
  call void @llvm.lifetime.end.p0(i64 8, ptr %4) #13
  call void @llvm.lifetime.end.p0(i64 8, ptr %3) #13
  ret ptr %49
}