; Function Attrs: nounwind uwtable
define internal fastcc noalias noundef ptr @mkText(ptr noundef captures(none) %0) unnamed_addr #0 {
  %2 = getelementptr inbounds nuw i8, ptr %0, i64 48
  %3 = tail call noalias dereferenceable_or_null(56) ptr @calloc(i64 noundef 1, i64 noundef range(i64 1, 73) 56) #18
  %4 = icmp eq ptr %3, null
  br i1 %4, label %5, label %gv_alloc.exit

5:                                                ; preds = %1
  %6 = load ptr, ptr @stderr, align 8, !tbaa !8
  %7 = tail call i32 (ptr, ptr, ...) @fprintf(ptr noundef %6, ptr noundef nonnull @.str.9, i64 noundef 56) #19
  tail call fastcc void @graphviz_exit() #20
  unreachable

gv_alloc.exit:                                    ; preds = %1
  %8 = getelementptr i8, ptr %0, i64 32
  %.val = load i64, ptr %8, align 8, !tbaa !29
  %9 = icmp eq i64 %.val, 0
  br i1 %9, label %11, label %10

10:                                               ; preds = %gv_alloc.exit
  tail call fastcc void @appendFLineList(ptr noundef nonnull %0, i32 noundef 0)
  br label %11

11:                                               ; preds = %10, %gv_alloc.exit
  %12 = getelementptr i8, ptr %0, i64 64
  %.val18 = load i64, ptr %12, align 8, !tbaa !29
  %13 = getelementptr inbounds nuw i8, ptr %3, i64 8
  store i64 %.val18, ptr %13, align 8, !tbaa !65
  %.not.i = icmp eq i64 %.val18, 0
  br i1 %.not.i, label %._crit_edge.thread, label %15

._crit_edge.thread:                               ; preds = %11
  %14 = tail call noalias ptr @calloc(i64 noundef 0, i64 noundef 40) #18
  store ptr %14, ptr %3, align 8, !tbaa !67
  br label %htextspans_clear.exit

15:                                               ; preds = %11
  %mul.ov.i = icmp ugt i64 %.val18, 461168601842738790
  br i1 %mul.ov.i, label %16, label %19

16:                                               ; preds = %15
  %17 = load ptr, ptr @stderr, align 8, !tbaa !8
  %18 = tail call i32 (ptr, ptr, ...) @fprintf(ptr noundef %17, ptr noundef nonnull @.str.8, i64 noundef %.val18, i64 noundef 40) #19
  tail call fastcc void @graphviz_exit() #20
  unreachable

19:                                               ; preds = %15
  %20 = tail call noalias ptr @calloc(i64 noundef %.val18, i64 noundef 40) #18
  %21 = icmp eq ptr %20, null
  br i1 %21, label %22, label %.lr.ph

22:                                               ; preds = %19
  %23 = load ptr, ptr @stderr, align 8, !tbaa !8
  %24 = mul nuw i64 %.val18, 40
  %25 = tail call i32 (ptr, ptr, ...) @fprintf(ptr noundef %23, ptr noundef nonnull @.str.9, i64 noundef %24) #19
  tail call fastcc void @graphviz_exit() #20
  unreachable

.lr.ph:                                           ; preds = %19
  store ptr %20, ptr %3, align 8, !tbaa !67
  %26 = getelementptr inbounds nuw i8, ptr %0, i64 56
  %27 = getelementptr inbounds nuw i8, ptr %0, i64 72
  br label %45

._crit_edge:                                      ; preds = %45
  %28 = icmp eq i64 %.val19, 0
  br i1 %28, label %htextspans_clear.exit, label %.lr.ph.i

.lr.ph.i:                                         ; preds = %._crit_edge
  %29 = getelementptr inbounds nuw i8, ptr %0, i64 56
  %30 = getelementptr inbounds nuw i8, ptr %0, i64 72
  br label %31

31:                                               ; preds = %free_hi.exit.i, %.lr.ph.i
  %.07.i = phi i64 [ 0, %.lr.ph.i ], [ %41, %free_hi.exit.i ]
  %32 = load ptr, ptr %2, align 8, !tbaa !30, !noalias !68
  %33 = load i64, ptr %29, align 8, !tbaa !31, !noalias !68
  %34 = add i64 %33, %.07.i
  %35 = load i64, ptr %30, align 8, !tbaa !32, !noalias !68
  %36 = urem i64 %34, %35
  %37 = getelementptr inbounds nuw %struct.htextspan_t, ptr %32, i64 %36
  %.sroa.0.0.copyload.i = load ptr, ptr %37, align 8, !tbaa !33
  %.sroa.2.0..sroa_idx.i = getelementptr inbounds nuw i8, ptr %37, i64 8
  %.sroa.2.0.copyload.i = load i64, ptr %.sroa.2.0..sroa_idx.i, align 8, !tbaa !60
  %.not.i.i = icmp eq i64 %.sroa.2.0.copyload.i, 0
  br i1 %.not.i.i, label %free_hi.exit.i, label %.lr.ph.i.i

.lr.ph.i.i:                                       ; preds = %31, %.lr.ph.i.i
  %.01.i.i = phi i64 [ %40, %.lr.ph.i.i ], [ 0, %31 ]
  %38 = getelementptr inbounds nuw %struct.textspan_t, ptr %.sroa.0.0.copyload.i, i64 %.01.i.i
  %39 = load ptr, ptr %38, align 8, !tbaa !61
  tail call void @free(ptr noundef %39) #16
  %40 = add nuw i64 %.01.i.i, 1
  %exitcond.not.i.i = icmp eq i64 %40, %.sroa.2.0.copyload.i
  br i1 %exitcond.not.i.i, label %free_hi.exit.i, label %.lr.ph.i.i, !llvm.loop !63

free_hi.exit.i:                                   ; preds = %.lr.ph.i.i, %31
  tail call void @free(ptr noundef %.sroa.0.0.copyload.i) #16
  %41 = add nuw i64 %.07.i, 1
  %42 = load i64, ptr %12, align 8, !tbaa !29
  %43 = icmp ult i64 %41, %42
  br i1 %43, label %31, label %htextspans_clear.exit, !llvm.loop !64

htextspans_clear.exit:                            ; preds = %free_hi.exit.i, %._crit_edge.thread, %._crit_edge
  %44 = getelementptr inbounds nuw i8, ptr %0, i64 56
  tail call void @llvm.memset.p0.i64(ptr noundef nonnull align 8 dereferenceable(16) %44, i8 0, i64 16, i1 false)
  ret ptr %3

45:                                               ; preds = %.lr.ph, %45
  %.022 = phi i64 [ 0, %.lr.ph ], [ %53, %45 ]
  %46 = load ptr, ptr %2, align 8, !tbaa !30
  %47 = load i64, ptr %26, align 8, !tbaa !31
  %48 = add i64 %47, %.022
  %49 = load i64, ptr %27, align 8, !tbaa !32
  %50 = urem i64 %48, %49
  %51 = getelementptr inbounds nuw %struct.htextspan_t, ptr %46, i64 %50
  %52 = getelementptr inbounds nuw %struct.htextspan_t, ptr %20, i64 %.022
  tail call void @llvm.memcpy.p0.p0.i64(ptr noundef nonnull align 8 dereferenceable(40) %52, ptr noundef nonnull align 8 dereferenceable(40) %51, i64 40, i1 false), !tbaa.struct !71
  tail call void @llvm.memset.p0.i64(ptr noundef nonnull align 8 dereferenceable(40) %51, i8 0, i64 40, i1 false)
  %53 = add nuw i64 %.022, 1
  %.val19 = load i64, ptr %12, align 8, !tbaa !29
  %54 = icmp ult i64 %53, %.val19
  br i1 %54, label %45, label %._crit_edge, !llvm.loop !73
}